target datalayout = "e-m:e-p270:32:32-p271:32:32-p272:64:64-i64:64-i128:128-f80:128-n8:16:32:64-S128"
target triple = "x86_64-pc-linux-gnu"

%"struct.p2t::Point" = type { double, double, %"class.std::vector" }
%"class.std::vector" = type { %"struct.std::_Vector_base" }
%"struct.std::_Vector_base" = type { %"struct.std::_Vector_base<p2t::Edge *, std::allocator<p2t::Edge *>>::_Vector_impl" }
%"struct.std::_Vector_base<p2t::Edge *, std::allocator<p2t::Edge *>>::_Vector_impl" = type { %"struct.std::_Vector_base<p2t::Edge *, std::allocator<p2t::Edge *>>::_Vector_impl_data" }
%"struct.std::_Vector_base<p2t::Edge *, std::allocator<p2t::Edge *>>::_Vector_impl_data" = type { ptr, ptr, ptr }
%"struct.p2t::Node" = type { ptr, ptr, ptr, ptr, double }
%"class.p2t::SweepContext" = type { %"class.std::vector", %"struct.p2t::SweepContext::Basin", %"struct.p2t::SweepContext::EdgeEvent", %"class.std::vector.0", %"class.std::__cxx11::list", %"class.std::vector.8", ptr, ptr, ptr, ptr, ptr, ptr }
%"struct.p2t::SweepContext::Basin" = type <{ ptr, ptr, ptr, double, i8, [7 x i8] }>
%"struct.p2t::SweepContext::EdgeEvent" = type <{ ptr, i8, [7 x i8] }>
%"class.std::vector.0" = type { %"struct.std::_Vector_base.1" }
%"struct.std::_Vector_base.1" = type { %"struct.std::_Vector_base<p2t::Triangle *, std::allocator<p2t::Triangle *>>::_Vector_impl" }
%"struct.std::_Vector_base<p2t::Triangle *, std::allocator<p2t::Triangle *>>::_Vector_impl" = type { %"struct.std::_Vector_base<p2t::Triangle *, std::allocator<p2t::Triangle *>>::_Vector_impl_data" }
%"struct.std::_Vector_base<p2t::Triangle *, std::allocator<p2t::Triangle *>>::_Vector_impl_data" = type { ptr, ptr, ptr }
%"class.std::__cxx11::list" = type { %"class.std::__cxx11::_List_base" }
%"class.std::__cxx11::_List_base" = type { %"struct.std::__cxx11::_List_base<p2t::Triangle *, std::allocator<p2t::Triangle *>>::_List_impl" }
%"struct.std::__cxx11::_List_base<p2t::Triangle *, std::allocator<p2t::Triangle *>>::_List_impl" = type { %"struct.std::__detail::_List_node_header" }
%"struct.std::__detail::_List_node_header" = type { %"struct.std::__detail::_List_node_base", i64 }
%"struct.std::__detail::_List_node_base" = type { ptr, ptr }
%"class.std::vector.8" = type { %"struct.std::_Vector_base.9" }
%"struct.std::_Vector_base.9" = type { %"struct.std::_Vector_base<p2t::Point *, std::allocator<p2t::Point *>>::_Vector_impl" }
%"struct.std::_Vector_base<p2t::Point *, std::allocator<p2t::Point *>>::_Vector_impl" = type { %"struct.std::_Vector_base<p2t::Point *, std::allocator<p2t::Point *>>::_Vector_impl_data" }
%"struct.std::_Vector_base<p2t::Point *, std::allocator<p2t::Point *>>::_Vector_impl_data" = type { ptr, ptr, ptr }

; Function Attrs: mustprogress nounwind uwtable
define linkonce_odr noundef i32 @_ZSt10fpclassifyd(double noundef %0) #2 comdat {
  %2 = alloca double, align 8
  store double %0, ptr %2, align 8
  %3 = load double, ptr %2, align 8
  %4 = fcmp oeq double %3, 0.000000e+00
  br i1 %4, label %5, label %7

5:                                                ; preds = %12, %9, %7, %1
  %6 = phi i32 [ 2, %1 ], [ 0, %7 ], [ 1, %9 ], [ %14, %12 ]
  ret i32 %6

7:                                                ; preds = %1
  %8 = fcmp uno double %3, %3
  br i1 %8, label %5, label %9

9:                                                ; preds = %7
  %10 = call double @llvm.fabs.f64(double %3) #15
  %11 = fcmp oeq double %10, 0x7FF0000000000000
  br i1 %11, label %5, label %12

12:                                               ; preds = %9
  %13 = fcmp uge double %10, 0x10000000000000
  %14 = select i1 %13, i32 4, i32 3
  br label %5
}

; Function Attrs: mustprogress uwtable
define hidden noundef i32 @_ZN3p2t8Orient2dERKNS_5PointES2_S2_(ptr noundef nonnull align 8 dereferenceable(40) %0, ptr noundef nonnull align 8 dereferenceable(40) %1, ptr noundef nonnull align 8 dereferenceable(40) %2) #0 {
  %4 = alloca i32, align 4
  %5 = alloca ptr, align 8
  %6 = alloca ptr, align 8
  %7 = alloca ptr, align 8
  %8 = alloca double, align 8
  %9 = alloca double, align 8
  %10 = alloca double, align 8
  %11 = alloca i32, align 4
  store ptr %0, ptr %5, align 8
  store ptr %1, ptr %6, align 8
  store ptr %2, ptr %7, align 8
  call void @llvm.lifetime.start.p0(i64 8, ptr %8) #14
  %12 = load ptr, ptr %5, align 8
  %13 = getelementptr inbounds nuw %"struct.p2t::Point", ptr %12, i32 0, i32 0
  %14 = load double, ptr %13, align 8
  %15 = load ptr, ptr %7, align 8
  %16 = getelementptr inbounds nuw %"struct.p2t::Point", ptr %15, i32 0, i32 0
  %17 = load double, ptr %16, align 8
  %18 = fsub double %14, %17
  %19 = load ptr, ptr %6, align 8
  %20 = getelementptr inbounds nuw %"struct.p2t::Point", ptr %19, i32 0, i32 1
  %21 = load double, ptr %20, align 8
  %22 = load ptr, ptr %7, align 8
  %23 = getelementptr inbounds nuw %"struct.p2t::Point", ptr %22, i32 0, i32 1
  %24 = load double, ptr %23, align 8
  %25 = fsub double %21, %24
  %26 = fmul double %18, %25
  store double %26, ptr %8, align 8
  call void @llvm.lifetime.start.p0(i64 8, ptr %9) #14
  %27 = load ptr, ptr %5, align 8
  %28 = getelementptr inbounds nuw %"struct.p2t::Point", ptr %27, i32 0, i32 1
  %29 = load double, ptr %28, align 8
  %30 = load ptr, ptr %7, align 8
  %31 = getelementptr inbounds nuw %"struct.p2t::Point", ptr %30, i32 0, i32 1
  %32 = load double, ptr %31, align 8
  %33 = fsub double %29, %32
  %34 = load ptr, ptr %6, align 8
  %35 = getelementptr inbounds nuw %"struct.p2t::Point", ptr %34, i32 0, i32 0
  %36 = load double, ptr %35, align 8
  %37 = load ptr, ptr %7, align 8
  %38 = getelementptr inbounds nuw %"struct.p2t::Point", ptr %37, i32 0, i32 0
  %39 = load double, ptr %38, align 8
  %40 = fsub double %36, %39
  %41 = fmul double %33, %40
  store double %41, ptr %9, align 8
  call void @llvm.lifetime.start.p0(i64 8, ptr %10) #14
  %42 = load double, ptr %8, align 8
  %43 = load double, ptr %9, align 8
  %44 = fsub double %42, %43
  store double %44, ptr %10, align 8
  %45 = load double, ptr %10, align 8
  %46 = call noundef i32 @_ZSt10fpclassifyd(double noundef %45)
  %47 = icmp eq i32 %46, 2
  br i1 %47, label %48, label %49

48:                                               ; preds = %3
  store i32 2, ptr %4, align 4
  store i32 1, ptr %11, align 4
  br label %55

49:                                               ; preds = %3
  %50 = load double, ptr %10, align 8
  %51 = fcmp ogt double %50, 0.000000e+00
  br i1 %51, label %52, label %53

52:                                               ; preds = %49
  store i32 1, ptr %4, align 4
  store i32 1, ptr %11, align 4
  br label %55

53:                                               ; preds = %49
  br label %54

54:                                               ; preds = %53
  store i32 0, ptr %4, align 4
  store i32 1, ptr %11, align 4
  br label %55

55:                                               ; preds = %54, %52, %48
  call void @llvm.lifetime.end.p0(i64 8, ptr %10) #14
  call void @llvm.lifetime.end.p0(i64 8, ptr %9) #14
  call void @llvm.lifetime.end.p0(i64 8, ptr %8) #14
  %56 = load i32, ptr %4, align 4
  ret i32 %56
}

; Function Attrs: mustprogress uwtable
define hidden void @_ZN3p2t5Sweep9FillBasinERNS_12SweepContextERNS_4NodeE(ptr noundef nonnull align 8 dereferenceable(24) %0, ptr noundef nonnull align 8 dereferenceable(200) %1, ptr noundef nonnull align 8 dereferenceable(40) %2) #0 align 2 {
  %4 = alloca ptr, align 8
  %5 = alloca ptr, align 8
  %6 = alloca ptr, align 8
  store ptr %0, ptr %4, align 8
  store ptr %1, ptr %5, align 8
  store ptr %2, ptr %6, align 8
  %7 = load ptr, ptr %4, align 8
  %8 = load ptr, ptr %6, align 8
  %9 = getelementptr inbounds nuw %"struct.p2t::Node", ptr %8, i32 0, i32 0
  %10 = load ptr, ptr %9, align 8
  %11 = load ptr, ptr %6, align 8
  %12 = getelementptr inbounds nuw %"struct.p2t::Node", ptr %11, i32 0, i32 2
  %13 = load ptr, ptr %12, align 8
  %14 = getelementptr inbounds nuw %"struct.p2t::Node", ptr %13, i32 0, i32 0
  %15 = load ptr, ptr %14, align 8
  %16 = load ptr, ptr %6, align 8
  %17 = getelementptr inbounds nuw %"struct.p2t::Node", ptr %16, i32 0, i32 2
  %18 = load ptr, ptr %17, align 8
  %19 = getelementptr inbounds nuw %"struct.p2t::Node", ptr %18, i32 0, i32 2
  %20 = load ptr, ptr %19, align 8
  %21 = getelementptr inbounds nuw %"struct.p2t::Node", ptr %20, i32 0, i32 0
  %22 = load ptr, ptr %21, align 8
  %23 = call noundef i32 @_ZN3p2t8Orient2dERKNS_5PointES2_S2_(ptr noundef nonnull align 8 dereferenceable(40) %10, ptr noundef nonnull align 8 dereferenceable(40) %15, ptr noundef nonnull align 8 dereferenceable(40) %22)
  %24 = icmp eq i32 %23, 1
  br i1 %24, label %25, label %34

25:                                               ; preds = %3
  %26 = load ptr, ptr %6, align 8
  %27 = getelementptr inbounds nuw %"struct.p2t::Node", ptr %26, i32 0, i32 2
  %28 = load ptr, ptr %27, align 8
  %29 = getelementptr inbounds nuw %"struct.p2t::Node", ptr %28, i32 0, i32 2
  %30 = load ptr, ptr %29, align 8
  %31 = load ptr, ptr %5, align 8
  %32 = getelementptr inbounds nuw %"class.p2t::SweepContext", ptr %31, i32 0, i32 1
  %33 = getelementptr inbounds nuw %"struct.p2t::SweepContext::Basin", ptr %32, i32 0, i32 0
  store ptr %30, ptr %33, align 8
  br label %41

34:                                               ; preds = %3
  %35 = load ptr, ptr %6, align 8
  %36 = getelementptr inbounds nuw %"struct.p2t::Node", ptr %35, i32 0, i32 2
  %37 = load ptr, ptr %36, align 8
  %38 = load ptr, ptr %5, align 8
  %39 = getelementptr inbounds nuw %"class.p2t::SweepContext", ptr %38, i32 0, i32 1
  %40 = getelementptr inbounds nuw %"struct.p2t::SweepContext::Basin", ptr %39, i32 0, i32 0
  store ptr %37, ptr %40, align 8
  br label %41

41:                                               ; preds = %34, %25
  %42 = load ptr, ptr %5, align 8
  %43 = getelementptr inbounds nuw %"class.p2t::SweepContext", ptr %42, i32 0, i32 1
  %44 = getelementptr inbounds nuw %"struct.p2t::SweepContext::Basin", ptr %43, i32 0, i32 0
  %45 = load ptr, ptr %44, align 8
  %46 = load ptr, ptr %5, align 8
  %47 = getelementptr inbounds nuw %"class.p2t::SweepContext", ptr %46, i32 0, i32 1
  %48 = getelementptr inbounds nuw %"struct.p2t::SweepContext::Basin", ptr %47, i32 0, i32 1
  store ptr %45, ptr %48, align 8
  br label %49

49:                                               ; preds = %79, %41
  %50 = load ptr, ptr %5, align 8
  %51 = getelementptr inbounds nuw %"class.p2t::SweepContext", ptr %50, i32 0, i32 1
  %52 = getelementptr inbounds nuw %"struct.p2t::SweepContext::Basin", ptr %51, i32 0, i32 1
  %53 = load ptr, ptr %52, align 8
  %54 = getelementptr inbounds nuw %"struct.p2t::Node", ptr %53, i32 0, i32 2
  %55 = load ptr, ptr %54, align 8
  %56 = icmp ne ptr %55, null
  br i1 %56, label %57, label %77

57:                                               ; preds = %49
  %58 = load ptr, ptr %5, align 8
  %59 = getelementptr inbounds nuw %"class.p2t::SweepContext", ptr %58, i32 0, i32 1
  %60 = getelementptr inbounds nuw %"struct.p2t::SweepContext::Basin", ptr %59, i32 0, i32 1
  %61 = load ptr, ptr %60, align 8
  %62 = getelementptr inbounds nuw %"struct.p2t::Node", ptr %61, i32 0, i32 0
  %63 = load ptr, ptr %62, align 8
  %64 = getelementptr inbounds nuw %"struct.p2t::Point", ptr %63, i32 0, i32 1
  %65 = load double, ptr %64, align 8
  %66 = load ptr, ptr %5, align 8
  %67 = getelementptr inbounds nuw %"class.p2t::SweepContext", ptr %66, i32 0, i32 1
  %68 = getelementptr inbounds nuw %"struct.p2t::SweepContext::Basin", ptr %67, i32 0, i32 1
  %69 = load ptr, ptr %68, align 8
  %70 = getelementptr inbounds nuw %"struct.p2t::Node", ptr %69, i32 0, i32 2
  %71 = load ptr, ptr %70, align 8
  %72 = getelementptr inbounds nuw %"struct.p2t::Node", ptr %71, i32 0, i32 0
  %73 = load ptr, ptr %72, align 8
  %74 = getelementptr inbounds nuw %"struct.p2t::Point", ptr %73, i32 0, i32 1
  %75 = load double, ptr %74, align 8
  %76 = fcmp oge double %65, %75
  br label %77

77:                                               ; preds = %57, %49
  %78 = phi i1 [ false, %49 ], [ %76, %57 ]
  br i1 %78, label %79, label %89

79:                                               ; preds = %77
  %80 = load ptr, ptr %5, align 8
  %81 = getelementptr inbounds nuw %"class.p2t::SweepContext", ptr %80, i32 0, i32 1
  %82 = getelementptr inbounds nuw %"struct.p2t::SweepContext::Basin", ptr %81, i32 0, i32 1
  %83 = load ptr, ptr %82, align 8
  %84 = getelementptr inbounds nuw %"struct.p2t::Node", ptr %83, i32 0, i32 2
  %85 = load ptr, ptr %84, align 8
  %86 = load ptr, ptr %5, align 8
  %87 = getelementptr inbounds nuw %"class.p2t::SweepContext", ptr %86, i32 0, i32 1
  %88 = getelementptr inbounds nuw %"struct.p2t::SweepContext::Basin", ptr %87, i32 0, i32 1
  store ptr %85, ptr %88, align 8
  br label %49, !llvm.loop !11

89:                                               ; preds = %77
  %90 = load ptr, ptr %5, align 8
  %91 = getelementptr inbounds nuw %"class.p2t::SweepContext", ptr %90, i32 0, i32 1
  %92 = getelementptr inbounds nuw %"struct.p2t::SweepContext::Basin", ptr %91, i32 0, i32 1
  %93 = load ptr, ptr %92, align 8
  %94 = load ptr, ptr %5, align 8
  %95 = getelementptr inbounds nuw %"class.p2t::SweepContext", ptr %94, i32 0, i32 1
  %96 = getelementptr inbounds nuw %"struct.p2t::SweepContext::Basin", ptr %95, i32 0, i32 0
  %97 = load ptr, ptr %96, align 8
  %98 = icmp eq ptr %93, %97
  br i1 %98, label %99, label %100

99:                                               ; preds = %89
  br label %206

100:                                              ; preds = %89
  %101 = load ptr, ptr %5, align 8
  %102 = getelementptr inbounds nuw %"class.p2t::SweepContext", ptr %101, i32 0, i32 1
  %103 = getelementptr inbounds nuw %"struct.p2t::SweepContext::Basin", ptr %102, i32 0, i32 1
  %104 = load ptr, ptr %103, align 8
  %105 = load ptr, ptr %5, align 8
  %106 = getelementptr inbounds nuw %"class.p2t::SweepContext", ptr %105, i32 0, i32 1
  %107 = getelementptr inbounds nuw %"struct.p2t::SweepContext::Basin", ptr %106, i32 0, i32 2
  store ptr %104, ptr %107, align 8
  br label %108

108:                                              ; preds = %138, %100
  %109 = load ptr, ptr %5, align 8
  %110 = getelementptr inbounds nuw %"class.p2t::SweepContext", ptr %109, i32 0, i32 1
  %111 = getelementptr inbounds nuw %"struct.p2t::SweepContext::Basin", ptr %110, i32 0, i32 2
  %112 = load ptr, ptr %111, align 8
  %113 = getelementptr inbounds nuw %"struct.p2t::Node", ptr %112, i32 0, i32 2
  %114 = load ptr, ptr %113, align 8
  %115 = icmp ne ptr %114, null
  br i1 %115, label %116, label %136

116:                                              ; preds = %108
  %117 = load ptr, ptr %5, align 8
  %118 = getelementptr inbounds nuw %"class.p2t::SweepContext", ptr %117, i32 0, i32 1
  %119 = getelementptr inbounds nuw %"struct.p2t::SweepContext::Basin", ptr %118, i32 0, i32 2
  %120 = load ptr, ptr %119, align 8
  %121 = getelementptr inbounds nuw %"struct.p2t::Node", ptr %120, i32 0, i32 0
  %122 = load ptr, ptr %121, align 8
  %123 = getelementptr inbounds nuw %"struct.p2t::Point", ptr %122, i32 0, i32 1
  %124 = load double, ptr %123, align 8
  %125 = load ptr, ptr %5, align 8
  %126 = getelementptr inbounds nuw %"class.p2t::SweepContext", ptr %125, i32 0, i32 1
  %127 = getelementptr inbounds nuw %"struct.p2t::SweepContext::Basin", ptr %126, i32 0, i32 2
  %128 = load ptr, ptr %127, align 8
  %129 = getelementptr inbounds nuw %"struct.p2t::Node", ptr %128, i32 0, i32 2
  %130 = load ptr, ptr %129, align 8
  %131 = getelementptr inbounds nuw %"struct.p2t::Node", ptr %130, i32 0, i32 0
  %132 = load ptr, ptr %131, align 8
  %133 = getelementptr inbounds nuw %"struct.p2t::Point", ptr %132, i32 0, i32 1
  %134 = load double, ptr %133, align 8
  %135 = fcmp olt double %124, %134
  br label %136

136:                                              ; preds = %116, %108
  %137 = phi i1 [ false, %108 ], [ %135, %116 ]
  br i1 %137, label %138, label %148

138:                                              ; preds = %136
  %139 = load ptr, ptr %5, align 8
  %140 = getelementptr inbounds nuw %"class.p2t::SweepContext", ptr %139, i32 0, i32 1
  %141 = getelementptr inbounds nuw %"struct.p2t::SweepContext::Basin", ptr %140, i32 0, i32 2
  %142 = load ptr, ptr %141, align 8
  %143 = getelementptr inbounds nuw %"struct.p2t::Node", ptr %142, i32 0, i32 2
  %144 = load ptr, ptr %143, align 8
  %145 = load ptr, ptr %5, align 8
  %146 = getelementptr inbounds nuw %"class.p2t::SweepContext", ptr %145, i32 0, i32 1
  %147 = getelementptr inbounds nuw %"struct.p2t::SweepContext::Basin", ptr %146, i32 0, i32 2
  store ptr %144, ptr %147, align 8
  br label %108, !llvm.loop !12

148:                                              ; preds = %136
  %149 = load ptr, ptr %5, align 8
  %150 = getelementptr inbounds nuw %"class.p2t::SweepContext", ptr %149, i32 0, i32 1
  %151 = getelementptr inbounds nuw %"struct.p2t::SweepContext::Basin", ptr %150, i32 0, i32 2
  %152 = load ptr, ptr %151, align 8
  %153 = load ptr, ptr %5, align 8
  %154 = getelementptr inbounds nuw %"class.p2t::SweepContext", ptr %153, i32 0, i32 1
  %155 = getelementptr inbounds nuw %"struct.p2t::SweepContext::Basin", ptr %154, i32 0, i32 1
  %156 = load ptr, ptr %155, align 8
  %157 = icmp eq ptr %152, %156
  br i1 %157, label %158, label %159

158:                                              ; preds = %148
  br label %206

159:                                              ; preds = %148
  %160 = load ptr, ptr %5, align 8
  %161 = getelementptr inbounds nuw %"class.p2t::SweepContext", ptr %160, i32 0, i32 1
  %162 = getelementptr inbounds nuw %"struct.p2t::SweepContext::Basin", ptr %161, i32 0, i32 2
  %163 = load ptr, ptr %162, align 8
  %164 = getelementptr inbounds nuw %"struct.p2t::Node", ptr %163, i32 0, i32 0
  %165 = load ptr, ptr %164, align 8
  %166 = getelementptr inbounds nuw %"struct.p2t::Point", ptr %165, i32 0, i32 0
  %167 = load double, ptr %166, align 8
  %168 = load ptr, ptr %5, align 8
  %169 = getelementptr inbounds nuw %"class.p2t::SweepContext", ptr %168, i32 0, i32 1
  %170 = getelementptr inbounds nuw %"struct.p2t::SweepContext::Basin", ptr %169, i32 0, i32 0
  %171 = load ptr, ptr %170, align 8
  %172 = getelementptr inbounds nuw %"struct.p2t::Node", ptr %171, i32 0, i32 0
  %173 = load ptr, ptr %172, align 8
  %174 = getelementptr inbounds nuw %"struct.p2t::Point", ptr %173, i32 0, i32 0
  %175 = load double, ptr %174, align 8
  %176 = fsub double %167, %175
  %177 = load ptr, ptr %5, align 8
  %178 = getelementptr inbounds nuw %"class.p2t::SweepContext", ptr %177, i32 0, i32 1
  %179 = getelementptr inbounds nuw %"struct.p2t::SweepContext::Basin", ptr %178, i32 0, i32 3
  store double %176, ptr %179, align 8
  %180 = load ptr, ptr %5, align 8
  %181 = getelementptr inbounds nuw %"class.p2t::SweepContext", ptr %180, i32 0, i32 1
  %182 = getelementptr inbounds nuw %"struct.p2t::SweepContext::Basin", ptr %181, i32 0, i32 0
  %183 = load ptr, ptr %182, align 8
  %184 = getelementptr inbounds nuw %"struct.p2t::Node", ptr %183, i32 0, i32 0
  %185 = load ptr, ptr %184, align 8
  %186 = getelementptr inbounds nuw %"struct.p2t::Point", ptr %185, i32 0, i32 1
  %187 = load double, ptr %186, align 8
  %188 = load ptr, ptr %5, align 8
  %189 = getelementptr inbounds nuw %"class.p2t::SweepContext", ptr %188, i32 0, i32 1
  %190 = getelementptr inbounds nuw %"struct.p2t::SweepContext::Basin", ptr %189, i32 0, i32 2
  %191 = load ptr, ptr %190, align 8
  %192 = getelementptr inbounds nuw %"struct.p2t::Node", ptr %191, i32 0, i32 0
  %193 = load ptr, ptr %192, align 8
  %194 = getelementptr inbounds nuw %"struct.p2t::Point", ptr %193, i32 0, i32 1
  %195 = load double, ptr %194, align 8
  %196 = fcmp ogt double %187, %195
  %197 = load ptr, ptr %5, align 8
  %198 = getelementptr inbounds nuw %"class.p2t::SweepContext", ptr %197, i32 0, i32 1
  %199 = getelementptr inbounds nuw %"struct.p2t::SweepContext::Basin", ptr %198, i32 0, i32 4
  %200 = zext i1 %196 to i8
  store i8 %200, ptr %199, align 8
  %201 = load ptr, ptr %5, align 8
  %202 = load ptr, ptr %5, align 8
  %203 = getelementptr inbounds nuw %"class.p2t::SweepContext", ptr %202, i32 0, i32 1
  %204 = getelementptr inbounds nuw %"struct.p2t::SweepContext::Basin", ptr %203, i32 0, i32 1
  %205 = load ptr, ptr %204, align 8
  call void @_ZN3p2t5Sweep12FillBasinReqERNS_12SweepContextEPNS_4NodeE(ptr noundef nonnull align 8 dereferenceable(24) %7, ptr noundef nonnull align 8 dereferenceable(200) %201, ptr noundef %205)
  br label %206

206:                                              ; preds = %159, %158, %99
  ret void
}