; Function Attrs: mustprogress uwtable
define hidden void @_ZN3p2t5Sweep9FillBasinERNS_12SweepContextERNS_4NodeE(ptr noundef nonnull align 8 dereferenceable(24) %0, ptr noundef nonnull align 8 dereferenceable(200) initializes((24, 40)) %1, ptr noundef nonnull readonly align 8 captures(none) dereferenceable(40) %2) local_unnamed_addr #2 align 2 {
  %4 = load ptr, ptr %2, align 8
  %5 = getelementptr inbounds nuw i8, ptr %2, i64 16
  %6 = load ptr, ptr %5, align 8
  %7 = load ptr, ptr %6, align 8
  %8 = getelementptr inbounds nuw i8, ptr %6, i64 16
  %9 = load ptr, ptr %8, align 8
  %10 = load ptr, ptr %9, align 8
  %11 = load double, ptr %4, align 8
  %12 = load double, ptr %10, align 8
  %13 = fsub double %11, %12
  %14 = getelementptr inbounds nuw i8, ptr %7, i64 8
  %15 = load double, ptr %14, align 8
  %16 = getelementptr inbounds nuw i8, ptr %10, i64 8
  %17 = load double, ptr %16, align 8
  %18 = fsub double %15, %17
  %19 = fmul double %13, %18
  %20 = getelementptr inbounds nuw i8, ptr %4, i64 8
  %21 = load double, ptr %20, align 8
  %22 = fsub double %21, %17
  %23 = load double, ptr %7, align 8
  %24 = fsub double %23, %12
  %25 = fmul double %22, %24
  %26 = fcmp ogt double %19, %25
  %.sink = select i1 %26, ptr %9, ptr %6
  %27 = getelementptr inbounds nuw i8, ptr %1, i64 24
  store ptr %.sink, ptr %27, align 8
  %28 = getelementptr inbounds nuw i8, ptr %1, i64 32
  br label %29

29:                                               ; preds = %32, %3
  %storemerge = phi ptr [ %.sink, %3 ], [ %31, %32 ]
  store ptr %storemerge, ptr %28, align 8
  %30 = getelementptr inbounds nuw i8, ptr %storemerge, i64 16
  %31 = load ptr, ptr %30, align 8
  %.not = icmp eq ptr %31, null
  br i1 %.not, label %.critedge, label %32

32:                                               ; preds = %29
  %33 = load ptr, ptr %storemerge, align 8
  %34 = getelementptr inbounds nuw i8, ptr %33, i64 8
  %35 = load double, ptr %34, align 8
  %36 = load ptr, ptr %31, align 8
  %37 = getelementptr inbounds nuw i8, ptr %36, i64 8
  %38 = load double, ptr %37, align 8
  %39 = fcmp ult double %35, %38
  br i1 %39, label %.critedge, label %29, !llvm.loop !13

.critedge:                                        ; preds = %29, %32
  %40 = icmp eq ptr %storemerge, %.sink
  br i1 %40, label %71, label %41

41:                                               ; preds = %.critedge
  %42 = getelementptr inbounds nuw i8, ptr %1, i64 40
  br label %43

43:                                               ; preds = %46, %41
  %storemerge39 = phi ptr [ %storemerge, %41 ], [ %45, %46 ]
  store ptr %storemerge39, ptr %42, align 8
  %44 = getelementptr inbounds nuw i8, ptr %storemerge39, i64 16
  %45 = load ptr, ptr %44, align 8
  %.not40 = icmp eq ptr %45, null
  br i1 %.not40, label %.critedge2, label %46

46:                                               ; preds = %43
  %47 = load ptr, ptr %storemerge39, align 8
  %48 = getelementptr inbounds nuw i8, ptr %47, i64 8
  %49 = load double, ptr %48, align 8
  %50 = load ptr, ptr %45, align 8
  %51 = getelementptr inbounds nuw i8, ptr %50, i64 8
  %52 = load double, ptr %51, align 8
  %53 = fcmp olt double %49, %52
  br i1 %53, label %43, label %.critedge2, !llvm.loop !14

.critedge2:                                       ; preds = %43, %46
  %54 = icmp eq ptr %storemerge39, %storemerge
  br i1 %54, label %71, label %55

55:                                               ; preds = %.critedge2
  %56 = load ptr, ptr %storemerge39, align 8
  %57 = load double, ptr %56, align 8
  %58 = load ptr, ptr %.sink, align 8
  %59 = load double, ptr %58, align 8
  %60 = fsub double %57, %59
  %61 = getelementptr inbounds nuw i8, ptr %1, i64 48
  store double %60, ptr %61, align 8
  %62 = load ptr, ptr %.sink, align 8
  %63 = getelementptr inbounds nuw i8, ptr %62, i64 8
  %64 = load double, ptr %63, align 8
  %65 = load ptr, ptr %storemerge39, align 8
  %66 = getelementptr inbounds nuw i8, ptr %65, i64 8
  %67 = load double, ptr %66, align 8
  %68 = fcmp ogt double %64, %67
  %69 = getelementptr inbounds nuw i8, ptr %1, i64 56
  %70 = zext i1 %68 to i8
  store i8 %70, ptr %69, align 8
  tail call void @_ZN3p2t5Sweep12FillBasinReqERNS_12SweepContextEPNS_4NodeE(ptr noundef nonnull align 8 dereferenceable(24) %0, ptr noundef nonnull align 8 dereferenceable(200) %1, ptr noundef %storemerge)
  br label %71

71:                                               ; preds = %.critedge2, %.critedge, %55
  ret void
}